target datalayout = "e-m:e-p270:32:32-p271:32:32-p272:64:64-i64:64-i128:128-f80:128-n8:16:32:64-S128"
target triple = "x86_64-pc-linux-gnu"

%class.VPointer = type { ptr, ptr, ptr, ptr, i32, i32, ptr, ptr, i8, i32 }

; Function Attrs: mustprogress nounwind uwtable
define hidden void @_ZN8VPointerC2EPS_(ptr noundef nonnull align 8 dereferenceable(64) %0, ptr noundef %1) unnamed_addr #1 align 2 {
  %3 = alloca ptr, align 8
  %4 = alloca ptr, align 8
  store ptr %0, ptr %3, align 8
  store ptr %1, ptr %4, align 8
  %5 = load ptr, ptr %3, align 8
  %6 = getelementptr inbounds %class.VPointer, ptr %5, i32 0, i32 0
  %7 = load ptr, ptr %4, align 8
  %8 = getelementptr inbounds %class.VPointer, ptr %7, i32 0, i32 0
  %9 = load ptr, ptr %8, align 8
  store ptr %9, ptr %6, align 8
  %10 = getelementptr inbounds %class.VPointer, ptr %5, i32 0, i32 1
  %11 = load ptr, ptr %4, align 8
  %12 = getelementptr inbounds %class.VPointer, ptr %11, i32 0, i32 1
  %13 = load ptr, ptr %12, align 8
  store ptr %13, ptr %10, align 8
  %14 = getelementptr inbounds %class.VPointer, ptr %5, i32 0, i32 2
  store ptr null, ptr %14, align 8
  %15 = getelementptr inbounds %class.VPointer, ptr %5, i32 0, i32 3
  store ptr null, ptr %15, align 8
  %16 = getelementptr inbounds %class.VPointer, ptr %5, i32 0, i32 4
  store i32 0, ptr %16, align 8
  %17 = getelementptr inbounds %class.VPointer, ptr %5, i32 0, i32 5
  store i32 0, ptr %17, align 4
  %18 = getelementptr inbounds %class.VPointer, ptr %5, i32 0, i32 6
  store ptr null, ptr %18, align 8
  %19 = getelementptr inbounds %class.VPointer, ptr %5, i32 0, i32 7
  %20 = load ptr, ptr %4, align 8
  %21 = getelementptr inbounds %class.VPointer, ptr %20, i32 0, i32 7
  %22 = load ptr, ptr %21, align 8
  store ptr %22, ptr %19, align 8
  %23 = getelementptr inbounds %class.VPointer, ptr %5, i32 0, i32 8
  %24 = load ptr, ptr %4, align 8
  %25 = getelementptr inbounds %class.VPointer, ptr %24, i32 0, i32 8
  %26 = load i8, ptr %25, align 8
  %27 = trunc i8 %26 to i1
  %28 = zext i1 %27 to i8
  store i8 %28, ptr %23, align 8
  %29 = getelementptr inbounds %class.VPointer, ptr %5, i32 0, i32 9
  %30 = load ptr, ptr %4, align 8
  %31 = getelementptr inbounds %class.VPointer, ptr %30, i32 0, i32 9
  %32 = load i32, ptr %31, align 4
  store i32 %32, ptr %29, align 4
  ret void
}