; Function Attrs: mustprogress nofree norecurse nosync nounwind willreturn memory(argmem: readwrite) uwtable
define hidden void @_ZN8VPointerC2EPS_(ptr nocapture noundef nonnull writeonly align 8 dereferenceable(64) %0, ptr nocapture noundef readonly %1) unnamed_addr #7 align 2 {
  %3 = load ptr, ptr %1, align 8
  store ptr %3, ptr %0, align 8
  %4 = getelementptr inbounds i8, ptr %0, i64 8
  %5 = getelementptr inbounds i8, ptr %1, i64 8
  %6 = load ptr, ptr %5, align 8
  store ptr %6, ptr %4, align 8
  %7 = getelementptr inbounds i8, ptr %0, i64 16
  %8 = getelementptr inbounds i8, ptr %0, i64 48
  %9 = getelementptr inbounds i8, ptr %1, i64 48
  tail call void @llvm.memset.p0.i64(ptr noundef nonnull align 8 dereferenceable(32) %7, i8 0, i64 32, i1 false)
  %10 = load ptr, ptr %9, align 8
  store ptr %10, ptr %8, align 8
  %11 = getelementptr inbounds i8, ptr %0, i64 56
  %12 = getelementptr inbounds i8, ptr %1, i64 56
  %13 = load i8, ptr %12, align 8
  %14 = and i8 %13, 1
  store i8 %14, ptr %11, align 8
  %15 = getelementptr inbounds i8, ptr %0, i64 60
  %16 = getelementptr inbounds i8, ptr %1, i64 60
  %17 = load i32, ptr %16, align 4
  store i32 %17, ptr %15, align 4
  ret void
}